; Function Attrs: mustprogress uwtable
define internal void @_ZN9grpc_core12_GLOBAL__N_121HttpConnectHandshaker8ShutdownEN4absl12lts_202407226StatusE(ptr noundef nonnull align 16 dereferenceable(4560) %0, ptr readnone captures(none) %1) unnamed_addr #3 align 2 personality ptr @__gxx_personality_v0 {
  %3 = getelementptr inbounds nuw i8, ptr %0, i64 16
  tail call void @_ZN4absl12lts_202407225Mutex4LockEv(ptr noundef nonnull align 8 dereferenceable(8) %3)
  %4 = getelementptr inbounds nuw i8, ptr %0, i64 56
  %5 = load ptr, ptr %4, align 8, !tbaa !32
  %.not = icmp eq ptr %5, null
  br i1 %.not, label %_ZNSt10unique_ptrI13grpc_endpointN9grpc_core16OrphanableDeleteEE5resetEPS0_.exit, label %6

6:                                                ; preds = %2
  %7 = getelementptr inbounds nuw i8, ptr %0, i64 24
  %8 = load ptr, ptr %7, align 8, !tbaa !68
  %9 = load ptr, ptr %8, align 8, !tbaa !86
  store ptr null, ptr %8, align 8, !tbaa !86
  %.not.i.i = icmp eq ptr %9, null
  br i1 %.not.i.i, label %_ZNSt10unique_ptrI13grpc_endpointN9grpc_core16OrphanableDeleteEE5resetEPS0_.exit, label %10

10:                                               ; preds = %6
  invoke void @_Z21grpc_endpoint_destroyP13grpc_endpoint(ptr noundef nonnull align 8 dereferenceable(8) %9)
          to label %_ZNSt10unique_ptrI13grpc_endpointN9grpc_core16OrphanableDeleteEE5resetEPS0_.exit unwind label %11

11:                                               ; preds = %10
  %12 = landingpad { ptr, i32 }
          catch ptr null
  %13 = extractvalue { ptr, i32 } %12, 0
  tail call void @__clang_call_terminate(ptr %13) #33
  unreachable

_ZNSt10unique_ptrI13grpc_endpointN9grpc_core16OrphanableDeleteEE5resetEPS0_.exit: ; preds = %10, %6, %2
  invoke void @_ZN4absl12lts_202407225Mutex6UnlockEv(ptr noundef nonnull align 8 dereferenceable(8) %3)
          to label %_ZN4absl12lts_202407229MutexLockD2Ev.exit unwind label %14

14:                                               ; preds = %_ZNSt10unique_ptrI13grpc_endpointN9grpc_core16OrphanableDeleteEE5resetEPS0_.exit
  %15 = landingpad { ptr, i32 }
          catch ptr null
  %16 = extractvalue { ptr, i32 } %15, 0
  tail call void @__clang_call_terminate(ptr %16) #33
  unreachable

_ZN4absl12lts_202407229MutexLockD2Ev.exit:        ; preds = %_ZNSt10unique_ptrI13grpc_endpointN9grpc_core16OrphanableDeleteEE5resetEPS0_.exit
  ret void
}